; ModuleID = 'source-C-CXX/12/1184.cpp'
source_filename = "source-C-CXX/12/1184.cpp"
target datalayout = "e-m:e-p270:32:32-p271:32:32-p272:64:64-i64:64-f80:128-n8:16:32:64-S128"
target triple = "x86_64-pc-linux-gnu"

%"class.std::ios_base::Init" = type { i8 }
%"class.std::basic_istream" = type { i32 (...)**, i64, %"class.std::basic_ios" }
%"class.std::basic_ios" = type { %"class.std::ios_base", %"class.std::basic_ostream"*, i8, i8, %"class.std::basic_streambuf"*, %"class.std::ctype"*, %"class.std::num_put"*, %"class.std::num_get"* }
%"class.std::ios_base" = type { i32 (...)**, i64, i64, i32, i32, i32, %"struct.std::ios_base::_Callback_list"*, %"struct.std::ios_base::_Words", [8 x %"struct.std::ios_base::_Words"], i32, %"struct.std::ios_base::_Words"*, %"class.std::locale" }
%"struct.std::ios_base::_Callback_list" = type { %"struct.std::ios_base::_Callback_list"*, void (i32, %"class.std::ios_base"*, i32)*, i32, i32 }
%"struct.std::ios_base::_Words" = type { i8*, i64 }
%"class.std::locale" = type { %"class.std::locale::_Impl"* }
%"class.std::locale::_Impl" = type { i32, %"class.std::locale::facet"**, i64, %"class.std::locale::facet"**, i8** }
%"class.std::locale::facet" = type <{ i32 (...)**, i32, [4 x i8] }>
%"class.std::basic_ostream" = type { i32 (...)**, %"class.std::basic_ios" }
%"class.std::basic_streambuf" = type { i32 (...)**, i8*, i8*, i8*, i8*, i8*, i8*, %"class.std::locale" }
%"class.std::ctype" = type <{ %"class.std::locale::facet.base", [4 x i8], %struct.__locale_struct*, i8, [7 x i8], i32*, i32*, i16*, i8, [256 x i8], [256 x i8], i8, [6 x i8] }>
%"class.std::locale::facet.base" = type <{ i32 (...)**, i32 }>
%struct.__locale_struct = type { [13 x %struct.__locale_data*], i16*, i32*, i32*, [13 x i8*] }
%struct.__locale_data = type opaque
%"class.std::num_put" = type { %"class.std::locale::facet.base", [4 x i8] }
%"class.std::num_get" = type { %"class.std::locale::facet.base", [4 x i8] }

@_ZStL8__ioinit = internal global %"class.std::ios_base::Init" zeroinitializer, align 1
@__dso_handle = external hidden global i8
@_ZSt3cin = external global %"class.std::basic_istream", align 8
@_ZSt4cout = external global %"class.std::basic_ostream", align 8
@.str = private unnamed_addr constant [2 x i8] c" \00", align 1
@llvm.global_ctors = appending global [1 x { i32, void ()*, i8* }] [{ i32, void ()*, i8* } { i32 65535, void ()* @_GLOBAL__sub_I_1184.cpp, i8* null }]

declare void @_ZNSt8ios_base4InitC1Ev(%"class.std::ios_base::Init"* nonnull align 1 dereferenceable(1)) unnamed_addr #0

; Function Attrs: nounwind
declare void @_ZNSt8ios_base4InitD1Ev(%"class.std::ios_base::Init"* nonnull align 1 dereferenceable(1)) unnamed_addr #1

; Function Attrs: nofree nounwind
declare i32 @__cxa_atexit(void (i8*)*, i8*, i8*) local_unnamed_addr #2

; Function Attrs: mustprogress norecurse sspstrong uwtable
define dso_local i32 @main() local_unnamed_addr #3 {
  %1 = alloca i32, align 4
  %2 = alloca i32, align 4
  %3 = bitcast i32* %1 to i8*
  call void @llvm.lifetime.start.p0i8(i64 4, i8* nonnull %3) #8
  %4 = call nonnull align 8 dereferenceable(16) %"class.std::basic_istream"* @_ZNSirsERi(%"class.std::basic_istream"* nonnull align 8 dereferenceable(16) @_ZSt3cin, i32* nonnull align 4 dereferenceable(4) %1)
  %5 = load i32, i32* %1, align 4, !tbaa !5
  %6 = add nsw i32 %5, 1
  %7 = zext i32 %6 to i64
  %8 = call i8* @llvm.stacksave()
  %9 = alloca i32, i64 %7, align 16
  store i32 0, i32* %9, align 16, !tbaa !5
  %10 = bitcast i32* %2 to i8*
  %11 = load i32, i32* %1, align 4, !tbaa !5
  %12 = icmp slt i32 %11, 1
  br i1 %12, label %65, label %18

13:                                               ; preds = %18
  %14 = icmp sgt i32 %24, 1
  br i1 %14, label %15, label %65

15:                                               ; preds = %13
  %16 = zext i32 %24 to i64
  %17 = add nsw i64 %16, -2
  br label %27

18:                                               ; preds = %0, %18
  %19 = phi i64 [ %23, %18 ], [ 1, %0 ]
  call void @llvm.lifetime.start.p0i8(i64 4, i8* nonnull %10) #8
  %20 = call nonnull align 8 dereferenceable(16) %"class.std::basic_istream"* @_ZNSirsERi(%"class.std::basic_istream"* nonnull align 8 dereferenceable(16) @_ZSt3cin, i32* nonnull align 4 dereferenceable(4) %2)
  %21 = load i32, i32* %2, align 4, !tbaa !5
  %22 = getelementptr inbounds i32, i32* %9, i64 %19
  store i32 %21, i32* %22, align 4, !tbaa !5
  call void @llvm.lifetime.end.p0i8(i64 4, i8* nonnull %10) #8
  %23 = add nuw nsw i64 %19, 1
  %24 = load i32, i32* %1, align 4, !tbaa !5
  %25 = sext i32 %24 to i64
  %26 = icmp slt i64 %19, %25
  br i1 %26, label %18, label %13, !llvm.loop !9

27:                                               ; preds = %61, %15
  %28 = phi i64 [ %64, %61 ], [ 0, %15 ]
  %29 = phi i64 [ %62, %61 ], [ %16, %15 ]
  %30 = xor i64 %28, -1
  %31 = add i64 %30, %16
  %32 = getelementptr inbounds i32, i32* %9, i64 %29
  %33 = load i32, i32* %32, align 4, !tbaa !5
  %34 = and i64 %31, 1
  %35 = icmp eq i64 %17, %28
  br i1 %35, label %52, label %36

36:                                               ; preds = %27
  %37 = and i64 %31, -2
  br label %38

38:                                               ; preds = %115, %36
  %39 = phi i32 [ %33, %36 ], [ %116, %115 ]
  %40 = phi i64 [ 1, %36 ], [ %117, %115 ]
  %41 = phi i64 [ %37, %36 ], [ %118, %115 ]
  %42 = getelementptr inbounds i32, i32* %9, i64 %40
  %43 = load i32, i32* %42, align 4, !tbaa !5
  %44 = icmp eq i32 %43, %39
  br i1 %44, label %45, label %46

45:                                               ; preds = %38
  store i32 0, i32* %32, align 4, !tbaa !5
  br label %46

46:                                               ; preds = %38, %45
  %47 = phi i32 [ %39, %38 ], [ 0, %45 ]
  %48 = add nuw nsw i64 %40, 1
  %49 = getelementptr inbounds i32, i32* %9, i64 %48
  %50 = load i32, i32* %49, align 4, !tbaa !5
  %51 = icmp eq i32 %50, %47
  br i1 %51, label %114, label %115

52:                                               ; preds = %115, %27
  %53 = phi i32 [ %33, %27 ], [ %116, %115 ]
  %54 = phi i64 [ 1, %27 ], [ %117, %115 ]
  %55 = icmp eq i64 %34, 0
  br i1 %55, label %61, label %56

56:                                               ; preds = %52
  %57 = getelementptr inbounds i32, i32* %9, i64 %54
  %58 = load i32, i32* %57, align 4, !tbaa !5
  %59 = icmp eq i32 %58, %53
  br i1 %59, label %60, label %61

60:                                               ; preds = %56
  store i32 0, i32* %32, align 4, !tbaa !5
  br label %61

61:                                               ; preds = %60, %56, %52
  %62 = add nsw i64 %29, -1
  %63 = icmp sgt i64 %29, 2
  %64 = add i64 %28, 1
  br i1 %63, label %27, label %65, !llvm.loop !11

65:                                               ; preds = %61, %0, %13
  %66 = getelementptr inbounds i32, i32* %9, i64 1
  %67 = load i32, i32* %66, align 4, !tbaa !5
  %68 = call nonnull align 8 dereferenceable(8) %"class.std::basic_ostream"* @_ZNSolsEi(%"class.std::basic_ostream"* nonnull align 8 dereferenceable(8) @_ZSt4cout, i32 %67)
  %69 = load i32, i32* %1, align 4, !tbaa !5
  %70 = icmp slt i32 %69, 2
  br i1 %70, label %86, label %71

71:                                               ; preds = %65, %81
  %72 = phi i32 [ %82, %81 ], [ %69, %65 ]
  %73 = phi i64 [ %83, %81 ], [ 2, %65 ]
  %74 = getelementptr inbounds i32, i32* %9, i64 %73
  %75 = load i32, i32* %74, align 4, !tbaa !5
  %76 = icmp eq i32 %75, 0
  br i1 %76, label %81, label %77

77:                                               ; preds = %71
  %78 = call nonnull align 8 dereferenceable(8) %"class.std::basic_ostream"* @_ZSt16__ostream_insertIcSt11char_traitsIcEERSt13basic_ostreamIT_T0_ES6_PKS3_l(%"class.std::basic_ostream"* nonnull align 8 dereferenceable(8) @_ZSt4cout, i8* nonnull getelementptr inbounds ([2 x i8], [2 x i8]* @.str, i64 0, i64 0), i64 1)
  %79 = call nonnull align 8 dereferenceable(8) %"class.std::basic_ostream"* @_ZNSolsEi(%"class.std::basic_ostream"* nonnull align 8 dereferenceable(8) @_ZSt4cout, i32 %75)
  %80 = load i32, i32* %1, align 4, !tbaa !5
  br label %81

81:                                               ; preds = %71, %77
  %82 = phi i32 [ %72, %71 ], [ %80, %77 ]
  %83 = add nuw nsw i64 %73, 1
  %84 = sext i32 %82 to i64
  %85 = icmp slt i64 %73, %84
  br i1 %85, label %71, label %86, !llvm.loop !12

86:                                               ; preds = %81, %65
  %87 = load i8*, i8** bitcast (%"class.std::basic_ostream"* @_ZSt4cout to i8**), align 8, !tbaa !13
  %88 = getelementptr i8, i8* %87, i64 -24
  %89 = bitcast i8* %88 to i64*
  %90 = load i64, i64* %89, align 8
  %91 = add nsw i64 %90, 240
  %92 = getelementptr inbounds i8, i8* bitcast (%"class.std::basic_ostream"* @_ZSt4cout to i8*), i64 %91
  %93 = bitcast i8* %92 to %"class.std::ctype"**
  %94 = load %"class.std::ctype"*, %"class.std::ctype"** %93, align 8, !tbaa !15
  %95 = icmp eq %"class.std::ctype"* %94, null
  br i1 %95, label %96, label %97

96:                                               ; preds = %86
  call void @_ZSt16__throw_bad_castv() #9
  unreachable

97:                                               ; preds = %86
  %98 = getelementptr inbounds %"class.std::ctype", %"class.std::ctype"* %94, i64 0, i32 8
  %99 = load i8, i8* %98, align 8, !tbaa !19
  %100 = icmp eq i8 %99, 0
  br i1 %100, label %104, label %101

101:                                              ; preds = %97
  %102 = getelementptr inbounds %"class.std::ctype", %"class.std::ctype"* %94, i64 0, i32 9, i64 10
  %103 = load i8, i8* %102, align 1, !tbaa !21
  br label %110

104:                                              ; preds = %97
  call void @_ZNKSt5ctypeIcE13_M_widen_initEv(%"class.std::ctype"* nonnull align 8 dereferenceable(570) %94)
  %105 = bitcast %"class.std::ctype"* %94 to i8 (%"class.std::ctype"*, i8)***
  %106 = load i8 (%"class.std::ctype"*, i8)**, i8 (%"class.std::ctype"*, i8)*** %105, align 8, !tbaa !13
  %107 = getelementptr inbounds i8 (%"class.std::ctype"*, i8)*, i8 (%"class.std::ctype"*, i8)** %106, i64 6
  %108 = load i8 (%"class.std::ctype"*, i8)*, i8 (%"class.std::ctype"*, i8)** %107, align 8
  %109 = call signext i8 %108(%"class.std::ctype"* nonnull align 8 dereferenceable(570) %94, i8 signext 10)
  br label %110

110:                                              ; preds = %101, %104
  %111 = phi i8 [ %103, %101 ], [ %109, %104 ]
  %112 = call nonnull align 8 dereferenceable(8) %"class.std::basic_ostream"* @_ZNSo3putEc(%"class.std::basic_ostream"* nonnull align 8 dereferenceable(8) @_ZSt4cout, i8 signext %111)
  %113 = call nonnull align 8 dereferenceable(8) %"class.std::basic_ostream"* @_ZNSo5flushEv(%"class.std::basic_ostream"* nonnull align 8 dereferenceable(8) %112)
  call void @llvm.stackrestore(i8* %8)
  call void @llvm.lifetime.end.p0i8(i64 4, i8* nonnull %3) #8
  ret i32 0

114:                                              ; preds = %46
  store i32 0, i32* %32, align 4, !tbaa !5
  br label %115

115:                                              ; preds = %114, %46
  %116 = phi i32 [ %47, %46 ], [ 0, %114 ]
  %117 = add nuw nsw i64 %40, 2
  %118 = add i64 %41, -2
  %119 = icmp eq i64 %118, 0
  br i1 %119, label %52, label %38, !llvm.loop !22
}

; Function Attrs: argmemonly mustprogress nofree nosync nounwind willreturn
declare void @llvm.lifetime.start.p0i8(i64 immarg, i8* nocapture) #4

declare nonnull align 8 dereferenceable(16) %"class.std::basic_istream"* @_ZNSirsERi(%"class.std::basic_istream"* nonnull align 8 dereferenceable(16), i32* nonnull align 4 dereferenceable(4)) local_unnamed_addr #0

; Function Attrs: mustprogress nofree nosync nounwind willreturn
declare i8* @llvm.stacksave() #5

; Function Attrs: argmemonly mustprogress nofree nosync nounwind willreturn
declare void @llvm.lifetime.end.p0i8(i64 immarg, i8* nocapture) #4

declare nonnull align 8 dereferenceable(8) %"class.std::basic_ostream"* @_ZNSolsEi(%"class.std::basic_ostream"* nonnull align 8 dereferenceable(8), i32) local_unnamed_addr #0

; Function Attrs: mustprogress nofree nosync nounwind willreturn
declare void @llvm.stackrestore(i8*) #5

declare nonnull align 8 dereferenceable(8) %"class.std::basic_ostream"* @_ZSt16__ostream_insertIcSt11char_traitsIcEERSt13basic_ostreamIT_T0_ES6_PKS3_l(%"class.std::basic_ostream"* nonnull align 8 dereferenceable(8), i8*, i64) local_unnamed_addr #0

declare nonnull align 8 dereferenceable(8) %"class.std::basic_ostream"* @_ZNSo3putEc(%"class.std::basic_ostream"* nonnull align 8 dereferenceable(8), i8 signext) local_unnamed_addr #0

declare nonnull align 8 dereferenceable(8) %"class.std::basic_ostream"* @_ZNSo5flushEv(%"class.std::basic_ostream"* nonnull align 8 dereferenceable(8)) local_unnamed_addr #0

; Function Attrs: noreturn
declare void @_ZSt16__throw_bad_castv() local_unnamed_addr #6

declare void @_ZNKSt5ctypeIcE13_M_widen_initEv(%"class.std::ctype"* nonnull align 8 dereferenceable(570)) local_unnamed_addr #0

; Function Attrs: sspstrong uwtable
define internal void @_GLOBAL__sub_I_1184.cpp() #7 section ".text.startup" {
  tail call void @_ZNSt8ios_base4InitC1Ev(%"class.std::ios_base::Init"* nonnull align 1 dereferenceable(1) @_ZStL8__ioinit)
  %1 = tail call i32 @__cxa_atexit(void (i8*)* bitcast (void (%"class.std::ios_base::Init"*)* @_ZNSt8ios_base4InitD1Ev to void (i8*)*), i8* getelementptr inbounds (%"class.std::ios_base::Init", %"class.std::ios_base::Init"* @_ZStL8__ioinit, i64 0, i32 0), i8* nonnull @__dso_handle) #8
  ret void
}


!llvm.module.flags = !{!0, !1, !2, !3}
!llvm.ident = !{!4}

!0 = !{i32 1, !"wchar_size", i32 4}
!1 = !{i32 7, !"PIC Level", i32 2}
!2 = !{i32 7, !"PIE Level", i32 2}
!3 = !{i32 7, !"uwtable", i32 1}
!4 = !{!"clang version 13.0.0"}
!5 = !{!6, !6, i64 0}
!6 = !{!"int", !7, i64 0}
!7 = !{!"omnipotent char", !8, i64 0}
!8 = !{!"Simple C++ TBAA"}
!9 = distinct !{!9, !10}
!10 = !{!"llvm.loop.mustprogress"}
!11 = distinct !{!11, !10}
!12 = distinct !{!12, !10}
!13 = !{!14, !14, i64 0}
!14 = !{!"vtable pointer", !8, i64 0}
!15 = !{!16, !17, i64 240}
!16 = !{!"_ZTSSt9basic_iosIcSt11char_traitsIcEE", !17, i64 216, !7, i64 224, !18, i64 225, !17, i64 232, !17, i64 240, !17, i64 248, !17, i64 256}
!17 = !{!"any pointer", !7, i64 0}
!18 = !{!"bool", !7, i64 0}
!19 = !{!20, !7, i64 56}
!20 = !{!"_ZTSSt5ctypeIcE", !17, i64 16, !18, i64 24, !17, i64 32, !17, i64 40, !17, i64 48, !7, i64 56, !7, i64 57, !7, i64 313, !7, i64 569}
!21 = !{!7, !7, i64 0}
!22 = distinct !{!22, !10}
